; Function Attrs: mustprogress nofree norecurse nosync nounwind willreturn memory(none) uwtable
define dso_local ptr @vu_request_to_string(i32 noundef %0) local_unnamed_addr #0 {
  %2 = icmp ult i32 %0, 42
  br i1 %2, label %3, label %7

3:                                                ; preds = %1
  %4 = zext nneg i32 %0 to i64
  %5 = getelementptr inbounds nuw [43 x ptr], ptr @vu_request_to_string.vu_request_str, i64 0, i64 %4
  %6 = load ptr, ptr %5, align 8
  br label %7

7:                                                ; preds = %1, %3
  %.0 = phi ptr [ %6, %3 ], [ @.str.38, %1 ]
  ret ptr %.0
}